; Function Attrs: mustprogress uwtable
define void @_ZN6gmxapi7ContextC2ESt10shared_ptrINS_11ContextImplEE(ptr noundef nonnull align 8 dereferenceable(16) initializes((0, 16)) %0, ptr noundef captures(none) %1) unnamed_addr #0 align 2 personality ptr @__gxx_personality_v0 {
  %3 = load ptr, ptr %1, align 8, !tbaa !49
  store ptr %3, ptr %0, align 8, !tbaa !49
  %4 = getelementptr inbounds nuw i8, ptr %0, i64 8
  store ptr null, ptr %4, align 8, !tbaa !47
  %5 = getelementptr inbounds nuw i8, ptr %1, i64 8
  %6 = load ptr, ptr %5, align 8, !tbaa !47
  store ptr null, ptr %5, align 8, !tbaa !47
  store ptr %6, ptr %4, align 8, !tbaa !47
  store ptr null, ptr %1, align 8, !tbaa !49
  %7 = load ptr, ptr %0, align 8, !tbaa !49
  %.not = icmp eq ptr %7, null
  br i1 %.not, label %8, label %15

8:                                                ; preds = %2
  %9 = tail call ptr @__cxa_allocate_exception(i64 40) #21
  invoke void @_ZN6gmxapi10UsageErrorCI2NS_14BasicExceptionIS0_EEEPKc(ptr noundef nonnull align 8 dereferenceable(40) %9, ptr noundef nonnull @.str.183)
          to label %10 unwind label %11

10:                                               ; preds = %8
  invoke void @__cxa_throw(ptr nonnull %9, ptr nonnull @_ZTIN6gmxapi10UsageErrorE, ptr nonnull @_ZN6gmxapi14BasicExceptionINS_10UsageErrorEED2Ev) #22
          to label %17 unwind label %13

11:                                               ; preds = %8
  %12 = landingpad { ptr, i32 }
          cleanup
  tail call void @__cxa_free_exception(ptr nonnull %9) #21
  br label %16

13:                                               ; preds = %10
  %14 = landingpad { ptr, i32 }
          cleanup
  br label %16

15:                                               ; preds = %2
  ret void

16:                                               ; preds = %13, %11
  %.pn = phi { ptr, i32 } [ %14, %13 ], [ %12, %11 ]
  tail call void @_ZNSt12__shared_ptrIN6gmxapi11ContextImplELN9__gnu_cxx12_Lock_policyE2EED2Ev(ptr noundef nonnull align 8 dereferenceable(16) %0) #21
  resume { ptr, i32 } %.pn

17:                                               ; preds = %10
  unreachable
}